target datalayout = "e-m:e-p270:32:32-p271:32:32-p272:64:64-i64:64-i128:128-f80:128-n8:16:32:64-S128"
target triple = "x86_64-pc-linux-gnu"

@.str = private unnamed_addr constant [4 x i8] c"INF\00", align 1
@.str.1 = private unnamed_addr constant [4 x i8] c"NAN\00", align 1

; Function Attrs: nounwind uwtable
define internal ptr @__cvt(double noundef %0, i32 noundef %1, ptr noundef %2, ptr noundef %3, i32 noundef %4, i32 noundef %5) #0 {
  %7 = alloca ptr, align 8
  %8 = alloca double, align 8
  %9 = alloca i32, align 4
  %10 = alloca ptr, align 8
  %11 = alloca ptr, align 8
  %12 = alloca i32, align 4
  %13 = alloca i32, align 4
  %14 = alloca ptr, align 8
  %15 = alloca ptr, align 8
  %16 = alloca ptr, align 8
  %17 = alloca i8, align 1
  %18 = alloca i64, align 8
  %19 = alloca i32, align 4
  store double %0, ptr %8, align 8, !tbaa !20
  store i32 %1, ptr %9, align 4, !tbaa !22
  store ptr %2, ptr %10, align 8, !tbaa !28
  store ptr %3, ptr %11, align 8, !tbaa !10
  store i32 %4, ptr %12, align 4, !tbaa !22
  store i32 %5, ptr %13, align 4, !tbaa !22
  call void @llvm.lifetime.start.p0(i64 8, ptr %14) #15
  store ptr null, ptr %14, align 8, !tbaa !13
  call void @llvm.lifetime.start.p0(i64 8, ptr %15) #15
  call void @llvm.lifetime.start.p0(i64 8, ptr %16) #15
  call void @llvm.lifetime.start.p0(i64 1, ptr %17) #15
  call void @llvm.lifetime.start.p0(i64 8, ptr %18) #15
  %20 = load i32, ptr %9, align 4, !tbaa !22
  %21 = icmp slt i32 %20, 0
  br i1 %21, label %22, label %27

22:                                               ; preds = %6
  %23 = load i32, ptr %9, align 4, !tbaa !22
  %24 = sub nsw i32 0, %23
  %25 = add nsw i32 %24, 1
  %26 = sext i32 %25 to i64
  store i64 %26, ptr %18, align 8, !tbaa !4
  br label %31

27:                                               ; preds = %6
  %28 = load i32, ptr %9, align 4, !tbaa !22
  %29 = add nsw i32 %28, 1
  %30 = sext i32 %29 to i64
  store i64 %30, ptr %18, align 8, !tbaa !4
  br label %31

31:                                               ; preds = %27, %22
  %32 = load double, ptr %8, align 8, !tbaa !20
  %33 = fcmp oeq double %32, 0.000000e+00
  br i1 %33, label %34, label %58

34:                                               ; preds = %31
  %35 = load i32, ptr %12, align 4, !tbaa !22
  %36 = sub nsw i32 1, %35
  %37 = load ptr, ptr %10, align 8, !tbaa !28
  store i32 %36, ptr %37, align 4, !tbaa !22
  %38 = load ptr, ptr %11, align 8, !tbaa !10
  store i8 0, ptr %38, align 1, !tbaa !8
  %39 = load i32, ptr %9, align 4, !tbaa !22
  %40 = icmp ne i32 %39, 0
  br i1 %40, label %41, label %43

41:                                               ; preds = %34
  %42 = load i64, ptr %18, align 8, !tbaa !4
  br label %44

43:                                               ; preds = %34
  br label %44

44:                                               ; preds = %43, %41
  %45 = phi i64 [ %42, %41 ], [ 2, %43 ]
  %46 = call noalias ptr @malloc(i64 noundef %45) #18
  store ptr %46, ptr %14, align 8, !tbaa !13
  store ptr %46, ptr %16, align 8, !tbaa !13
  %47 = icmp eq ptr %46, null
  br i1 %47, label %48, label %49

48:                                               ; preds = %44
  store ptr null, ptr %7, align 8
  store i32 1, ptr %19, align 4
  br label %133

49:                                               ; preds = %44
  %50 = load ptr, ptr %16, align 8, !tbaa !13
  %51 = getelementptr inbounds nuw i8, ptr %50, i32 1
  store ptr %51, ptr %16, align 8, !tbaa !13
  store i8 48, ptr %50, align 1, !tbaa !19
  %52 = load ptr, ptr %16, align 8, !tbaa !13
  store i8 0, ptr %52, align 1, !tbaa !19
  %53 = load i32, ptr %9, align 4, !tbaa !22
  %54 = icmp ne i32 %53, 0
  br i1 %54, label %57, label %55

55:                                               ; preds = %49
  %56 = load ptr, ptr %14, align 8, !tbaa !13
  store ptr %56, ptr %7, align 8
  store i32 1, ptr %19, align 4
  br label %133

57:                                               ; preds = %49
  br label %111

58:                                               ; preds = %31
  %59 = load double, ptr %8, align 8, !tbaa !20
  %60 = load i32, ptr %12, align 4, !tbaa !22
  %61 = add nsw i32 %60, 2
  %62 = load i32, ptr %9, align 4, !tbaa !22
  %63 = load ptr, ptr %10, align 8, !tbaa !28
  %64 = load ptr, ptr %11, align 8, !tbaa !10
  %65 = call ptr @zend_dtoa(double noundef %59, i32 noundef %61, i32 noundef %62, ptr noundef %63, ptr noundef %64, ptr noundef %16)
  store ptr %65, ptr %15, align 8, !tbaa !13
  %66 = load ptr, ptr %10, align 8, !tbaa !28
  %67 = load i32, ptr %66, align 4, !tbaa !22
  %68 = icmp eq i32 %67, 9999
  br i1 %68, label %69, label %79

69:                                               ; preds = %58
  %70 = load ptr, ptr %10, align 8, !tbaa !28
  store i32 0, ptr %70, align 4, !tbaa !22
  %71 = load ptr, ptr %15, align 8, !tbaa !13
  %72 = load i8, ptr %71, align 1, !tbaa !19
  store i8 %72, ptr %17, align 1, !tbaa !19
  %73 = load ptr, ptr %15, align 8, !tbaa !13
  call void @zend_freedtoa(ptr noundef %73)
  %74 = load i8, ptr %17, align 1, !tbaa !19
  %75 = sext i8 %74 to i32
  %76 = icmp eq i32 %75, 73
  %77 = select i1 %76, ptr @.str, ptr @.str.1
  %78 = call noalias ptr @strdup(ptr noundef %77) #15
  store ptr %78, ptr %7, align 8
  store i32 1, ptr %19, align 4
  br label %133

79:                                               ; preds = %58
  %80 = load i32, ptr %13, align 4, !tbaa !22
  %81 = icmp ne i32 %80, 0
  br i1 %81, label %82, label %91

82:                                               ; preds = %79
  %83 = load i32, ptr %12, align 4, !tbaa !22
  %84 = icmp ne i32 %83, 0
  br i1 %84, label %85, label %91

85:                                               ; preds = %82
  %86 = load ptr, ptr %10, align 8, !tbaa !28
  %87 = load i32, ptr %86, align 4, !tbaa !22
  %88 = sext i32 %87 to i64
  %89 = load i64, ptr %18, align 8, !tbaa !4
  %90 = add i64 %89, %88
  store i64 %90, ptr %18, align 8, !tbaa !4
  br label %91

91:                                               ; preds = %85, %82, %79
  %92 = load i64, ptr %18, align 8, !tbaa !4
  %93 = add i64 %92, 1
  %94 = call noalias ptr @malloc(i64 noundef %93) #18
  store ptr %94, ptr %14, align 8, !tbaa !13
  %95 = icmp eq ptr %94, null
  br i1 %95, label %96, label %98

96:                                               ; preds = %91
  %97 = load ptr, ptr %15, align 8, !tbaa !13
  call void @zend_freedtoa(ptr noundef %97)
  store ptr null, ptr %7, align 8
  store i32 1, ptr %19, align 4
  br label %133

98:                                               ; preds = %91
  %99 = load ptr, ptr %14, align 8, !tbaa !13
  %100 = load ptr, ptr %15, align 8, !tbaa !13
  %101 = load i64, ptr %18, align 8, !tbaa !4
  %102 = call i64 @php_strlcpy(ptr noundef %99, ptr noundef %100, i64 noundef %101)
  %103 = load ptr, ptr %14, align 8, !tbaa !13
  %104 = load ptr, ptr %16, align 8, !tbaa !13
  %105 = load ptr, ptr %15, align 8, !tbaa !13
  %106 = ptrtoint ptr %104 to i64
  %107 = ptrtoint ptr %105 to i64
  %108 = sub i64 %106, %107
  %109 = getelementptr inbounds i8, ptr %103, i64 %108
  store ptr %109, ptr %16, align 8, !tbaa !13
  %110 = load ptr, ptr %15, align 8, !tbaa !13
  call void @zend_freedtoa(ptr noundef %110)
  br label %111

111:                                              ; preds = %98, %57
  %112 = load i32, ptr %13, align 4, !tbaa !22
  %113 = icmp ne i32 %112, 0
  br i1 %113, label %114, label %131

114:                                              ; preds = %111
  %115 = load ptr, ptr %16, align 8, !tbaa !13
  %116 = load ptr, ptr %14, align 8, !tbaa !13
  %117 = ptrtoint ptr %115 to i64
  %118 = ptrtoint ptr %116 to i64
  %119 = sub i64 %117, %118
  %120 = load i64, ptr %18, align 8, !tbaa !4
  %121 = sub i64 %120, %119
  store i64 %121, ptr %18, align 8, !tbaa !4
  br label %122

122:                                              ; preds = %126, %114
  %123 = load i64, ptr %18, align 8, !tbaa !4
  %124 = add i64 %123, -1
  store i64 %124, ptr %18, align 8, !tbaa !4
  %125 = icmp ne i64 %124, 0
  br i1 %125, label %126, label %129

126:                                              ; preds = %122
  %127 = load ptr, ptr %16, align 8, !tbaa !13
  %128 = getelementptr inbounds nuw i8, ptr %127, i32 1
  store ptr %128, ptr %16, align 8, !tbaa !13
  store i8 48, ptr %127, align 1, !tbaa !19
  br label %122

129:                                              ; preds = %122
  %130 = load ptr, ptr %16, align 8, !tbaa !13
  store i8 0, ptr %130, align 1, !tbaa !19
  br label %131

131:                                              ; preds = %129, %111
  %132 = load ptr, ptr %14, align 8, !tbaa !13
  store ptr %132, ptr %7, align 8
  store i32 1, ptr %19, align 4
  br label %133

133:                                              ; preds = %131, %96, %69, %55, %48
  call void @llvm.lifetime.end.p0(i64 8, ptr %18) #15
  call void @llvm.lifetime.end.p0(i64 1, ptr %17) #15
  call void @llvm.lifetime.end.p0(i64 8, ptr %16) #15
  call void @llvm.lifetime.end.p0(i64 8, ptr %15) #15
  call void @llvm.lifetime.end.p0(i64 8, ptr %14) #15
  %134 = load ptr, ptr %7, align 8
  ret ptr %134
}