; Function Attrs: nounwind uwtable
define internal fastcc noundef ptr @__cvt(double noundef %0, i32 noundef %1, ptr noundef nonnull %2, ptr noundef %3, i32 noundef range(i32 0, 2) %4) unnamed_addr #2 {
  %6 = alloca ptr, align 8
  call void @llvm.lifetime.start.p0(i64 8, ptr nonnull %6) #17
  %.0.in.p = tail call i32 @llvm.abs.i32(i32 %1, i1 false)
  %.0.in = add nuw i32 %.0.in.p, 1
  %.0 = zext i32 %.0.in to i64
  %7 = fcmp oeq double %0, 0.000000e+00
  br i1 %7, label %8, label %15

8:                                                ; preds = %5
  %9 = xor i32 %4, 1
  store i32 %9, ptr %2, align 4, !tbaa !16
  store i8 0, ptr %3, align 1, !tbaa !4
  %.not48 = icmp eq i32 %1, 0
  %10 = select i1 %.not48, i64 2, i64 %.0
  %11 = tail call noalias ptr @malloc(i64 noundef %10) #22
  %12 = icmp eq ptr %11, null
  br i1 %12, label %49, label %13

13:                                               ; preds = %8
  %14 = getelementptr inbounds nuw i8, ptr %11, i64 1
  store ptr %14, ptr %6, align 8, !tbaa !28
  store i8 48, ptr %11, align 1, !tbaa !8
  store i8 0, ptr %14, align 1, !tbaa !8
  br i1 %.not48, label %49, label %38

15:                                               ; preds = %5
  %16 = or disjoint i32 %4, 2
  %17 = call ptr @zend_dtoa(double noundef %0, i32 noundef %16, i32 noundef %1, ptr noundef nonnull %2, ptr noundef %3, ptr noundef nonnull %6) #17
  %18 = load i32, ptr %2, align 4, !tbaa !16
  %19 = icmp eq i32 %18, 9999
  br i1 %19, label %20, label %25

20:                                               ; preds = %15
  store i32 0, ptr %2, align 4, !tbaa !16
  %21 = load i8, ptr %17, align 1, !tbaa !8
  call void @zend_freedtoa(ptr noundef nonnull %17) #17
  %22 = icmp eq i8 %21, 73
  %23 = select i1 %22, ptr @.str, ptr @.str.1
  %24 = call noalias dereferenceable_or_null(4) ptr @strdup(ptr noundef nonnull %23) #17
  br label %49

25:                                               ; preds = %15
  %.not = icmp eq i32 %4, 0
  %narrow = select i1 %.not, i32 0, i32 %18
  %26 = sext i32 %narrow to i64
  %.2 = add nsw i64 %26, %.0
  %27 = add nsw i64 %.2, 1
  %28 = call noalias ptr @malloc(i64 noundef %27) #22
  %29 = icmp eq ptr %28, null
  br i1 %29, label %30, label %31

30:                                               ; preds = %25
  call void @zend_freedtoa(ptr noundef %17) #17
  br label %49

31:                                               ; preds = %25
  %32 = call i64 @php_strlcpy(ptr noundef nonnull %28, ptr noundef %17, i64 noundef %.2) #17
  %33 = load ptr, ptr %6, align 8, !tbaa !28
  %34 = ptrtoint ptr %33 to i64
  %35 = ptrtoint ptr %17 to i64
  %36 = sub i64 %34, %35
  %37 = getelementptr inbounds i8, ptr %28, i64 %36
  store ptr %37, ptr %6, align 8, !tbaa !28
  call void @zend_freedtoa(ptr noundef %17) #17
  %.pre = load ptr, ptr %6, align 8, !tbaa !28
  br label %38

38:                                               ; preds = %31, %13
  %39 = phi ptr [ %14, %13 ], [ %.pre, %31 ]
  %.040 = phi ptr [ %11, %13 ], [ %28, %31 ]
  %.1 = phi i64 [ %.0, %13 ], [ %.2, %31 ]
  %40 = ptrtoint ptr %39 to i64
  %41 = ptrtoint ptr %.040 to i64
  %.neg = add i64 %.1, %41
  %42 = xor i64 %40, -1
  %43 = add i64 %.neg, %42
  %.not4951 = icmp eq i64 %43, 0
  br i1 %.not4951, label %._crit_edge, label %.lr.ph

.lr.ph:                                           ; preds = %38, %.lr.ph
  %44 = phi i64 [ %47, %.lr.ph ], [ %43, %38 ]
  %45 = load ptr, ptr %6, align 8, !tbaa !28
  %46 = getelementptr inbounds nuw i8, ptr %45, i64 1
  store ptr %46, ptr %6, align 8, !tbaa !28
  store i8 48, ptr %45, align 1, !tbaa !8
  %47 = add i64 %44, -1
  %.not49 = icmp eq i64 %47, 0
  br i1 %.not49, label %._crit_edge.loopexit, label %.lr.ph

._crit_edge.loopexit:                             ; preds = %.lr.ph
  %.pre52 = load ptr, ptr %6, align 8, !tbaa !28
  br label %._crit_edge

._crit_edge:                                      ; preds = %._crit_edge.loopexit, %38
  %48 = phi ptr [ %.pre52, %._crit_edge.loopexit ], [ %39, %38 ]
  store i8 0, ptr %48, align 1, !tbaa !8
  br label %49

49:                                               ; preds = %13, %8, %._crit_edge, %30, %20
  %.039 = phi ptr [ %.040, %._crit_edge ], [ %24, %20 ], [ null, %30 ], [ null, %8 ], [ %11, %13 ]
  call void @llvm.lifetime.end.p0(i64 8, ptr nonnull %6) #17
  ret ptr %.039
}